target datalayout = "e-m:e-p270:32:32-p271:32:32-p272:64:64-i64:64-i128:128-f80:128-n8:16:32:64-S128"
target triple = "x86_64-pc-linux-gnu"

%struct.Nwk_Obj_t_ = type { ptr, ptr, ptr, %union.anon, i32, i32, i32, i32, float, float, float, i32, i32, i32, ptr }
%union.anon = type { ptr }
%struct.Vec_Ptr_t_ = type { i32, i32, ptr }

; Function Attrs: inlinehint nounwind uwtable
define internal void @Vec_PtrGrow(ptr noundef %0, i32 noundef %1) #2 {
  %3 = alloca ptr, align 8
  %4 = alloca i32, align 4
  store ptr %0, ptr %3, align 8, !tbaa !29
  store i32 %1, ptr %4, align 4, !tbaa !8
  %5 = load ptr, ptr %3, align 8, !tbaa !29
  %6 = getelementptr inbounds nuw %struct.Vec_Ptr_t_, ptr %5, i32 0, i32 0
  %7 = load i32, ptr %6, align 8, !tbaa !77
  %8 = load i32, ptr %4, align 4, !tbaa !8
  %9 = icmp sge i32 %7, %8
  br i1 %9, label %10, label %11

10:                                               ; preds = %2
  br label %36

11:                                               ; preds = %2
  %12 = load ptr, ptr %3, align 8, !tbaa !29
  %13 = getelementptr inbounds nuw %struct.Vec_Ptr_t_, ptr %12, i32 0, i32 2
  %14 = load ptr, ptr %13, align 8, !tbaa !32
  %15 = icmp ne ptr %14, null
  br i1 %15, label %16, label %24

16:                                               ; preds = %11
  %17 = load ptr, ptr %3, align 8, !tbaa !29
  %18 = getelementptr inbounds nuw %struct.Vec_Ptr_t_, ptr %17, i32 0, i32 2
  %19 = load ptr, ptr %18, align 8, !tbaa !32
  %20 = load i32, ptr %4, align 4, !tbaa !8
  %21 = sext i32 %20 to i64
  %22 = mul i64 8, %21
  %23 = call ptr @realloc(ptr noundef %19, i64 noundef %22) #10
  br label %29

24:                                               ; preds = %11
  %25 = load i32, ptr %4, align 4, !tbaa !8
  %26 = sext i32 %25 to i64
  %27 = mul i64 8, %26
  %28 = call noalias ptr @malloc(i64 noundef %27) #9
  br label %29

29:                                               ; preds = %24, %16
  %30 = phi ptr [ %23, %16 ], [ %28, %24 ]
  %31 = load ptr, ptr %3, align 8, !tbaa !29
  %32 = getelementptr inbounds nuw %struct.Vec_Ptr_t_, ptr %31, i32 0, i32 2
  store ptr %30, ptr %32, align 8, !tbaa !32
  %33 = load i32, ptr %4, align 4, !tbaa !8
  %34 = load ptr, ptr %3, align 8, !tbaa !29
  %35 = getelementptr inbounds nuw %struct.Vec_Ptr_t_, ptr %34, i32 0, i32 0
  store i32 %33, ptr %35, align 8, !tbaa !77
  br label %36

36:                                               ; preds = %29, %10
  ret void
}

; Function Attrs: inlinehint nounwind uwtable
define internal i32 @Nwk_ObjLevel(ptr noundef %0) #2 {
  %2 = alloca ptr, align 8
  store ptr %0, ptr %2, align 8, !tbaa !18
  %3 = load ptr, ptr %2, align 8, !tbaa !18
  %4 = getelementptr inbounds nuw %struct.Nwk_Obj_t_, ptr %3, i32 0, i32 7
  %5 = load i32, ptr %4, align 4, !tbaa !78
  ret i32 %5
}

; Function Attrs: inlinehint nounwind uwtable
define internal i32 @Vec_PtrSize(ptr noundef %0) #2 {
  %2 = alloca ptr, align 8
  store ptr %0, ptr %2, align 8, !tbaa !29
  %3 = load ptr, ptr %2, align 8, !tbaa !29
  %4 = getelementptr inbounds nuw %struct.Vec_Ptr_t_, ptr %3, i32 0, i32 1
  %5 = load i32, ptr %4, align 4, !tbaa !30
  ret i32 %5
}

; Function Attrs: inlinehint nounwind uwtable
define internal void @Vec_PtrPush(ptr noundef %0, ptr noundef %1) #2 {
  %3 = alloca ptr, align 8
  %4 = alloca ptr, align 8
  store ptr %0, ptr %3, align 8, !tbaa !29
  store ptr %1, ptr %4, align 8, !tbaa !33
  %5 = load ptr, ptr %3, align 8, !tbaa !29
  %6 = getelementptr inbounds nuw %struct.Vec_Ptr_t_, ptr %5, i32 0, i32 1
  %7 = load i32, ptr %6, align 4, !tbaa !30
  %8 = load ptr, ptr %3, align 8, !tbaa !29
  %9 = getelementptr inbounds nuw %struct.Vec_Ptr_t_, ptr %8, i32 0, i32 0
  %10 = load i32, ptr %9, align 8, !tbaa !77
  %11 = icmp eq i32 %7, %10
  br i1 %11, label %12, label %26

12:                                               ; preds = %2
  %13 = load ptr, ptr %3, align 8, !tbaa !29
  %14 = getelementptr inbounds nuw %struct.Vec_Ptr_t_, ptr %13, i32 0, i32 0
  %15 = load i32, ptr %14, align 8, !tbaa !77
  %16 = icmp slt i32 %15, 16
  br i1 %16, label %17, label %19

17:                                               ; preds = %12
  %18 = load ptr, ptr %3, align 8, !tbaa !29
  call void @Vec_PtrGrow(ptr noundef %18, i32 noundef 16)
  br label %25

19:                                               ; preds = %12
  %20 = load ptr, ptr %3, align 8, !tbaa !29
  %21 = load ptr, ptr %3, align 8, !tbaa !29
  %22 = getelementptr inbounds nuw %struct.Vec_Ptr_t_, ptr %21, i32 0, i32 0
  %23 = load i32, ptr %22, align 8, !tbaa !77
  %24 = mul nsw i32 2, %23
  call void @Vec_PtrGrow(ptr noundef %20, i32 noundef %24)
  br label %25

25:                                               ; preds = %19, %17
  br label %26

26:                                               ; preds = %25, %2
  %27 = load ptr, ptr %4, align 8, !tbaa !33
  %28 = load ptr, ptr %3, align 8, !tbaa !29
  %29 = getelementptr inbounds nuw %struct.Vec_Ptr_t_, ptr %28, i32 0, i32 2
  %30 = load ptr, ptr %29, align 8, !tbaa !32
  %31 = load ptr, ptr %3, align 8, !tbaa !29
  %32 = getelementptr inbounds nuw %struct.Vec_Ptr_t_, ptr %31, i32 0, i32 1
  %33 = load i32, ptr %32, align 4, !tbaa !30
  %34 = add nsw i32 %33, 1
  store i32 %34, ptr %32, align 4, !tbaa !30
  %35 = sext i32 %33 to i64
  %36 = getelementptr inbounds ptr, ptr %30, i64 %35
  store ptr %27, ptr %36, align 8, !tbaa !33
  ret void
}

; Function Attrs: nounwind uwtable
define void @Nwk_NodeUpdateAddToQueue(ptr noundef %0, ptr noundef %1, i32 noundef %2, i32 noundef %3) #0 {
  %5 = alloca ptr, align 8
  %6 = alloca ptr, align 8
  %7 = alloca i32, align 4
  %8 = alloca i32, align 4
  %9 = alloca ptr, align 8
  %10 = alloca ptr, align 8
  %11 = alloca i32, align 4
  store ptr %0, ptr %5, align 8, !tbaa !29
  store ptr %1, ptr %6, align 8, !tbaa !18
  store i32 %2, ptr %7, align 4, !tbaa !8
  store i32 %3, ptr %8, align 4, !tbaa !8
  call void @llvm.lifetime.start.p0(i64 8, ptr %9) #8
  call void @llvm.lifetime.start.p0(i64 8, ptr %10) #8
  call void @llvm.lifetime.start.p0(i64 4, ptr %11) #8
  %12 = load ptr, ptr %5, align 8, !tbaa !29
  %13 = load ptr, ptr %6, align 8, !tbaa !18
  call void @Vec_PtrPush(ptr noundef %12, ptr noundef %13)
  %14 = load ptr, ptr %5, align 8, !tbaa !29
  %15 = call i32 @Vec_PtrSize(ptr noundef %14)
  %16 = sub nsw i32 %15, 1
  store i32 %16, ptr %11, align 4, !tbaa !8
  br label %17

17:                                               ; preds = %72, %4
  %18 = load i32, ptr %11, align 4, !tbaa !8
  %19 = load i32, ptr %7, align 4, !tbaa !8
  %20 = add nsw i32 %19, 1
  %21 = icmp sgt i32 %18, %20
  br i1 %21, label %22, label %75

22:                                               ; preds = %17
  %23 = load ptr, ptr %5, align 8, !tbaa !29
  %24 = getelementptr inbounds nuw %struct.Vec_Ptr_t_, ptr %23, i32 0, i32 2
  %25 = load ptr, ptr %24, align 8, !tbaa !32
  %26 = load i32, ptr %11, align 4, !tbaa !8
  %27 = sext i32 %26 to i64
  %28 = getelementptr inbounds ptr, ptr %25, i64 %27
  %29 = load ptr, ptr %28, align 8, !tbaa !33
  store ptr %29, ptr %9, align 8, !tbaa !18
  %30 = load ptr, ptr %5, align 8, !tbaa !29
  %31 = getelementptr inbounds nuw %struct.Vec_Ptr_t_, ptr %30, i32 0, i32 2
  %32 = load ptr, ptr %31, align 8, !tbaa !32
  %33 = load i32, ptr %11, align 4, !tbaa !8
  %34 = sub nsw i32 %33, 1
  %35 = sext i32 %34 to i64
  %36 = getelementptr inbounds ptr, ptr %32, i64 %35
  %37 = load ptr, ptr %36, align 8, !tbaa !33
  store ptr %37, ptr %10, align 8, !tbaa !18
  %38 = load i32, ptr %8, align 4, !tbaa !8
  %39 = icmp ne i32 %38, 0
  br i1 %39, label %40, label %48

40:                                               ; preds = %22
  %41 = load ptr, ptr %10, align 8, !tbaa !18
  %42 = call i32 @Nwk_ObjLevel(ptr noundef %41)
  %43 = load ptr, ptr %9, align 8, !tbaa !18
  %44 = call i32 @Nwk_ObjLevel(ptr noundef %43)
  %45 = icmp sle i32 %42, %44
  br i1 %45, label %46, label %47

46:                                               ; preds = %40
  br label %75

47:                                               ; preds = %40
  br label %56

48:                                               ; preds = %22
  %49 = load ptr, ptr %10, align 8, !tbaa !18
  %50 = call i32 @Nwk_ObjLevel(ptr noundef %49)
  %51 = load ptr, ptr %9, align 8, !tbaa !18
  %52 = call i32 @Nwk_ObjLevel(ptr noundef %51)
  %53 = icmp sge i32 %50, %52
  br i1 %53, label %54, label %55

54:                                               ; preds = %48
  br label %75

55:                                               ; preds = %48
  br label %56

56:                                               ; preds = %55, %47
  %57 = load ptr, ptr %9, align 8, !tbaa !18
  %58 = load ptr, ptr %5, align 8, !tbaa !29
  %59 = getelementptr inbounds nuw %struct.Vec_Ptr_t_, ptr %58, i32 0, i32 2
  %60 = load ptr, ptr %59, align 8, !tbaa !32
  %61 = load i32, ptr %11, align 4, !tbaa !8
  %62 = sub nsw i32 %61, 1
  %63 = sext i32 %62 to i64
  %64 = getelementptr inbounds ptr, ptr %60, i64 %63
  store ptr %57, ptr %64, align 8, !tbaa !33
  %65 = load ptr, ptr %10, align 8, !tbaa !18
  %66 = load ptr, ptr %5, align 8, !tbaa !29
  %67 = getelementptr inbounds nuw %struct.Vec_Ptr_t_, ptr %66, i32 0, i32 2
  %68 = load ptr, ptr %67, align 8, !tbaa !32
  %69 = load i32, ptr %11, align 4, !tbaa !8
  %70 = sext i32 %69 to i64
  %71 = getelementptr inbounds ptr, ptr %68, i64 %70
  store ptr %65, ptr %71, align 8, !tbaa !33
  br label %72

72:                                               ; preds = %56
  %73 = load i32, ptr %11, align 4, !tbaa !8
  %74 = add nsw i32 %73, -1
  store i32 %74, ptr %11, align 4, !tbaa !8
  br label %17, !llvm.loop !75

75:                                               ; preds = %54, %46, %17
  %76 = load i32, ptr %7, align 4, !tbaa !8
  %77 = add nsw i32 %76, 1
  store i32 %77, ptr %11, align 4, !tbaa !8
  br label %78

78:                                               ; preds = %105, %75
  %79 = load i32, ptr %11, align 4, !tbaa !8
  %80 = load ptr, ptr %5, align 8, !tbaa !29
  %81 = call i32 @Vec_PtrSize(ptr noundef %80)
  %82 = sub nsw i32 %81, 1
  %83 = icmp slt i32 %79, %82
  br i1 %83, label %84, label %108

84:                                               ; preds = %78
  %85 = load ptr, ptr %5, align 8, !tbaa !29
  %86 = getelementptr inbounds nuw %struct.Vec_Ptr_t_, ptr %85, i32 0, i32 2
  %87 = load ptr, ptr %86, align 8, !tbaa !32
  %88 = load i32, ptr %11, align 4, !tbaa !8
  %89 = sext i32 %88 to i64
  %90 = getelementptr inbounds ptr, ptr %87, i64 %89
  %91 = load ptr, ptr %90, align 8, !tbaa !33
  store ptr %91, ptr %9, align 8, !tbaa !18
  %92 = load ptr, ptr %5, align 8, !tbaa !29
  %93 = getelementptr inbounds nuw %struct.Vec_Ptr_t_, ptr %92, i32 0, i32 2
  %94 = load ptr, ptr %93, align 8, !tbaa !32
  %95 = load i32, ptr %11, align 4, !tbaa !8
  %96 = add nsw i32 %95, 1
  %97 = sext i32 %96 to i64
  %98 = getelementptr inbounds ptr, ptr %94, i64 %97
  %99 = load ptr, ptr %98, align 8, !tbaa !33
  store ptr %99, ptr %10, align 8, !tbaa !18
  %100 = load i32, ptr %8, align 4, !tbaa !8
  %101 = icmp ne i32 %100, 0
  br i1 %101, label %102, label %103

102:                                              ; preds = %84
  br label %104

103:                                              ; preds = %84
  br label %104

104:                                              ; preds = %103, %102
  br label %105

105:                                              ; preds = %104
  %106 = load i32, ptr %11, align 4, !tbaa !8
  %107 = add nsw i32 %106, 1
  store i32 %107, ptr %11, align 4, !tbaa !8
  br label %78, !llvm.loop !76

108:                                              ; preds = %78
  call void @llvm.lifetime.end.p0(i64 4, ptr %11) #8
  call void @llvm.lifetime.end.p0(i64 8, ptr %10) #8
  call void @llvm.lifetime.end.p0(i64 8, ptr %9) #8
  ret void
}