; Function Attrs: nounwind uwtable
define void @Nwk_NodeUpdateAddToQueue(ptr noundef captures(none) %0, ptr noundef %1, i32 noundef %2, i32 noundef %3) local_unnamed_addr #4 {
  %5 = getelementptr inbounds nuw i8, ptr %0, i64 4
  %6 = load i32, ptr %5, align 4, !tbaa !15
  %7 = load i32, ptr %0, align 8, !tbaa !67
  %8 = icmp eq i32 %6, %7
  br i1 %8, label %9, label %.Vec_PtrGrow.exit11_crit_edge.i

.Vec_PtrGrow.exit11_crit_edge.i:                  ; preds = %4
  %.phi.trans.insert.i = getelementptr inbounds nuw i8, ptr %0, i64 8
  %.pre.i = load ptr, ptr %.phi.trans.insert.i, align 8, !tbaa !17
  br label %Vec_PtrPush.exit

9:                                                ; preds = %4
  %10 = icmp slt i32 %6, 16
  br i1 %10, label %11, label %19

11:                                               ; preds = %9
  %12 = getelementptr inbounds nuw i8, ptr %0, i64 8
  %13 = load ptr, ptr %12, align 8, !tbaa !17
  %.not9.i.i = icmp eq ptr %13, null
  br i1 %.not9.i.i, label %16, label %14

14:                                               ; preds = %11
  %15 = tail call dereferenceable_or_null(128) ptr @realloc(ptr noundef nonnull %13, i64 noundef 128) #14
  br label %Vec_PtrGrow.exit.i

16:                                               ; preds = %11
  %17 = tail call noalias dereferenceable_or_null(128) ptr @malloc(i64 noundef 128) #13
  br label %Vec_PtrGrow.exit.i

Vec_PtrGrow.exit.i:                               ; preds = %16, %14
  %18 = phi ptr [ %15, %14 ], [ %17, %16 ]
  store ptr %18, ptr %12, align 8, !tbaa !17
  store i32 16, ptr %0, align 8, !tbaa !67
  br label %Vec_PtrPush.exit

19:                                               ; preds = %9
  %20 = shl nuw nsw i32 %6, 1
  %21 = getelementptr inbounds nuw i8, ptr %0, i64 8
  %22 = load ptr, ptr %21, align 8, !tbaa !17
  %.not9.i10.i = icmp eq ptr %22, null
  %23 = zext nneg i32 %20 to i64
  %24 = shl nuw nsw i64 %23, 3
  br i1 %.not9.i10.i, label %27, label %25

25:                                               ; preds = %19
  %26 = tail call ptr @realloc(ptr noundef nonnull %22, i64 noundef %24) #14
  br label %29

27:                                               ; preds = %19
  %28 = tail call noalias ptr @malloc(i64 noundef %24) #13
  br label %29

29:                                               ; preds = %27, %25
  %30 = phi ptr [ %26, %25 ], [ %28, %27 ]
  store ptr %30, ptr %21, align 8, !tbaa !17
  store i32 %20, ptr %0, align 8, !tbaa !67
  br label %Vec_PtrPush.exit

Vec_PtrPush.exit:                                 ; preds = %.Vec_PtrGrow.exit11_crit_edge.i, %Vec_PtrGrow.exit.i, %29
  %31 = phi ptr [ %.pre.i, %.Vec_PtrGrow.exit11_crit_edge.i ], [ %30, %29 ], [ %18, %Vec_PtrGrow.exit.i ]
  %32 = load i32, ptr %5, align 4, !tbaa !15
  %33 = add nsw i32 %32, 1
  store i32 %33, ptr %5, align 4, !tbaa !15
  %34 = sext i32 %32 to i64
  %35 = getelementptr inbounds ptr, ptr %31, i64 %34
  store ptr %1, ptr %35, align 8, !tbaa !18
  %36 = add nsw i32 %2, 1
  %37 = icmp sgt i32 %32, %36
  br i1 %37, label %.lr.ph, label %._crit_edge

.lr.ph:                                           ; preds = %Vec_PtrPush.exit
  %38 = getelementptr inbounds nuw i8, ptr %0, i64 8
  %.not = icmp eq i32 %3, 0
  %39 = sext i32 %36 to i64
  br i1 %.not, label %.lr.ph.split.us, label %.lr.ph.split

.lr.ph.split.us:                                  ; preds = %.lr.ph, %49
  %indvars.iv44 = phi i64 [ %indvars.iv.next45, %49 ], [ %34, %.lr.ph ]
  %.0.in35.us = phi i32 [ %53, %49 ], [ %33, %.lr.ph ]
  %40 = load ptr, ptr %38, align 8, !tbaa !17
  %41 = getelementptr inbounds ptr, ptr %40, i64 %indvars.iv44
  %42 = load ptr, ptr %41, align 8, !tbaa !18
  %43 = sext i32 %.0.in35.us to i64
  %44 = getelementptr ptr, ptr %40, i64 %43
  %45 = getelementptr i8, ptr %44, i64 -16
  %46 = load ptr, ptr %45, align 8, !tbaa !18
  %47 = getelementptr i8, ptr %46, i64 44
  %.val33.us = load i32, ptr %47, align 4, !tbaa !68
  %48 = getelementptr i8, ptr %42, i64 44
  %.val34.us = load i32, ptr %48, align 4, !tbaa !68
  %.not28.us = icmp slt i32 %.val33.us, %.val34.us
  br i1 %.not28.us, label %49, label %._crit_edge

49:                                               ; preds = %.lr.ph.split.us
  store ptr %42, ptr %45, align 8, !tbaa !18
  %50 = load ptr, ptr %38, align 8, !tbaa !17
  %51 = getelementptr inbounds ptr, ptr %50, i64 %indvars.iv44
  store ptr %46, ptr %51, align 8, !tbaa !18
  %indvars.iv.next45 = add nsw i64 %indvars.iv44, -1
  %52 = icmp sgt i64 %indvars.iv.next45, %39
  %53 = trunc nsw i64 %indvars.iv44 to i32
  br i1 %52, label %.lr.ph.split.us, label %._crit_edge, !llvm.loop !69

.lr.ph.split:                                     ; preds = %.lr.ph, %63
  %indvars.iv = phi i64 [ %indvars.iv.next, %63 ], [ %34, %.lr.ph ]
  %.0.in35 = phi i32 [ %67, %63 ], [ %33, %.lr.ph ]
  %54 = load ptr, ptr %38, align 8, !tbaa !17
  %55 = getelementptr inbounds ptr, ptr %54, i64 %indvars.iv
  %56 = load ptr, ptr %55, align 8, !tbaa !18
  %57 = sext i32 %.0.in35 to i64
  %58 = getelementptr ptr, ptr %54, i64 %57
  %59 = getelementptr i8, ptr %58, i64 -16
  %60 = load ptr, ptr %59, align 8, !tbaa !18
  %61 = getelementptr i8, ptr %60, i64 44
  %.val31 = load i32, ptr %61, align 4, !tbaa !68
  %62 = getelementptr i8, ptr %56, i64 44
  %.val32 = load i32, ptr %62, align 4, !tbaa !68
  %.not29 = icmp sgt i32 %.val31, %.val32
  br i1 %.not29, label %63, label %._crit_edge

63:                                               ; preds = %.lr.ph.split
  store ptr %56, ptr %59, align 8, !tbaa !18
  %64 = load ptr, ptr %38, align 8, !tbaa !17
  %65 = getelementptr inbounds ptr, ptr %64, i64 %indvars.iv
  store ptr %60, ptr %65, align 8, !tbaa !18
  %indvars.iv.next = add nsw i64 %indvars.iv, -1
  %66 = icmp sgt i64 %indvars.iv.next, %39
  %67 = trunc nsw i64 %indvars.iv to i32
  br i1 %66, label %.lr.ph.split, label %._crit_edge, !llvm.loop !69

._crit_edge:                                      ; preds = %63, %.lr.ph.split, %49, %.lr.ph.split.us, %Vec_PtrPush.exit
  ret void
}